; Function Attrs: mustprogress nofree norecurse nosync nounwind willreturn memory(argmem: write) uwtable
define void @_ZN6icu_778Calendar11internalSetENS0_11EDateFieldsEi(ptr noundef nonnull writeonly align 8 captures(none) dereferenceable(192) %0, i32 noundef %1, i32 noundef %2) local_unnamed_addr #23 align 2 {
  %4 = getelementptr inbounds nuw i8, ptr %0, i64 8
  %5 = zext i32 %1 to i64
  %6 = getelementptr inbounds nuw [24 x i32], ptr %4, i64 0, i64 %5
  store i32 %2, ptr %6, align 4, !tbaa !12
  %7 = getelementptr inbounds nuw i8, ptr %0, i64 104
  %8 = getelementptr inbounds nuw [24 x i8], ptr %7, i64 0, i64 %5
  store i8 1, ptr %8, align 1, !tbaa !47
  ret void
}